; Function Attrs: nounwind uwtable
define i32 @Gia_ManSat3CallOne(ptr noundef %0, i32 noundef %1) local_unnamed_addr #0 {
  %3 = alloca %struct.timespec, align 8
  %4 = alloca %struct.timespec, align 8
  call void @llvm.lifetime.start.p0(i64 16, ptr nonnull %4) #9
  %5 = call i32 @clock_gettime(i32 noundef 1, ptr noundef nonnull %4) #9
  %6 = icmp slt i32 %5, 0
  br i1 %6, label %Abc_Clock.exit, label %7

7:                                                ; preds = %2
  %8 = load i64, ptr %4, align 8, !tbaa !24
  %.neg12 = mul i64 %8, -1000000
  %9 = getelementptr inbounds nuw i8, ptr %4, i64 8
  %10 = load i64, ptr %9, align 8, !tbaa !27
  %.neg = sdiv i64 %10, -1000
  %.neg13 = add i64 %.neg, %.neg12
  br label %Abc_Clock.exit

Abc_Clock.exit:                                   ; preds = %2, %7
  %.0.i.neg = phi i64 [ %.neg13, %7 ], [ 1, %2 ]
  call void @llvm.lifetime.end.p0(i64 16, ptr nonnull %4) #9
  %11 = call ptr @Gia_ManSat3Create(ptr noundef %0)
  %.not = icmp eq ptr %11, null
  br i1 %.not, label %17, label %12

12:                                               ; preds = %Abc_Clock.exit
  %13 = call i32 @sat_solver3_solve(ptr noundef nonnull %11, ptr noundef null, ptr noundef null, i64 noundef 0, i64 noundef 0, i64 noundef 0, i64 noundef 0) #9
  %14 = getelementptr inbounds nuw i8, ptr %11, i64 432
  %15 = load i64, ptr %14, align 8, !tbaa !28
  %16 = trunc i64 %15 to i32
  call void @sat_solver3_delete(ptr noundef nonnull %11) #9
  br label %17

17:                                               ; preds = %Abc_Clock.exit, %12
  %.08 = phi i32 [ %13, %12 ], [ -1, %Abc_Clock.exit ]
  %.0 = phi i32 [ %16, %12 ], [ 0, %Abc_Clock.exit ]
  call void @llvm.lifetime.start.p0(i64 16, ptr nonnull %3) #9
  %18 = call i32 @clock_gettime(i32 noundef 1, ptr noundef nonnull %3) #9
  %19 = icmp slt i32 %18, 0
  br i1 %19, label %Abc_Clock.exit11, label %20

20:                                               ; preds = %17
  %21 = load i64, ptr %3, align 8, !tbaa !24
  %22 = mul nsw i64 %21, 1000000
  %23 = getelementptr inbounds nuw i8, ptr %3, i64 8
  %24 = load i64, ptr %23, align 8, !tbaa !27
  %25 = sdiv i64 %24, 1000
  %26 = add nsw i64 %25, %22
  br label %Abc_Clock.exit11

Abc_Clock.exit11:                                 ; preds = %17, %20
  %.0.i10 = phi i64 [ %26, %20 ], [ -1, %17 ]
  call void @llvm.lifetime.end.p0(i64 16, ptr nonnull %3) #9
  %27 = icmp sgt i32 %1, -1
  br i1 %27, label %28, label %29

28:                                               ; preds = %Abc_Clock.exit11
  call void (i32, ptr, ...) @Abc_Print(i32 poison, ptr noundef nonnull @.str, i32 noundef %1)
  br label %Gia_ManSat3Report.exit

29:                                               ; preds = %Abc_Clock.exit11
  call void (i32, ptr, ...) @Abc_Print(i32 poison, ptr noundef nonnull @.str.1)
  br label %Gia_ManSat3Report.exit

Gia_ManSat3Report.exit:                           ; preds = %28, %29
  %30 = add i64 %.0.i10, %.0.i.neg
  %switch.selectcmp.i = icmp eq i32 %.08, 1
  %switch.select.i = select i1 %switch.selectcmp.i, ptr @.str.3, ptr @.str.4
  %switch.selectcmp6.i = icmp eq i32 %.08, 0
  %switch.select7.i = select i1 %switch.selectcmp6.i, ptr @.str.2, ptr %switch.select.i
  call void (i32, ptr, ...) @Abc_Print(i32 poison, ptr noundef nonnull %switch.select7.i)
  call void (i32, ptr, ...) @Abc_Print(i32 poison, ptr noundef nonnull @.str.9, ptr noundef nonnull @.str.5)
  %31 = sitofp i64 %30 to double
  %32 = fdiv double %31, 1.000000e+06
  call void (i32, ptr, ...) @Abc_Print(i32 poison, ptr noundef nonnull @.str.10, double noundef %32)
  ret i32 %.0
}